target datalayout = "e-m:e-p270:32:32-p271:32:32-p272:64:64-i64:64-i128:128-f80:128-n8:16:32:64-S128"
target triple = "x86_64-pc-linux-gnu"

%"struct.net::HpackPrefix" = type { i8, i64 }
%"class.net::HpackEncoder" = type <{ %"class.net::HpackHeaderTable", %"class.net::HpackOutputStream", ptr, i64, %"class.std::function", i8, i8, [6 x i8] }>
%"class.net::HpackHeaderTable" = type { ptr, %"class.std::deque", ptr, ptr, %"class.std::unordered_set", %"class.std::unordered_map", i64, i64, i64, i64, %"class.std::unique_ptr" }
%"class.std::deque" = type { %"class.std::_Deque_base" }
%"class.std::_Deque_base" = type { %"struct.std::_Deque_base<net::HpackEntry, std::allocator<net::HpackEntry>>::_Deque_impl" }
%"struct.std::_Deque_base<net::HpackEntry, std::allocator<net::HpackEntry>>::_Deque_impl" = type { %"struct.std::_Deque_base<net::HpackEntry, std::allocator<net::HpackEntry>>::_Deque_impl_data" }
%"struct.std::_Deque_base<net::HpackEntry, std::allocator<net::HpackEntry>>::_Deque_impl_data" = type { ptr, i64, %"struct.std::_Deque_iterator", %"struct.std::_Deque_iterator" }
%"struct.std::_Deque_iterator" = type { ptr, ptr, ptr, ptr }
%"class.std::unordered_set" = type { %"class.std::_Hashtable" }
%"class.std::_Hashtable" = type { ptr, i64, %"struct.std::__detail::_Hash_node_base", i64, %"struct.std::__detail::_Prime_rehash_policy", ptr }
%"struct.std::__detail::_Hash_node_base" = type { ptr }
%"struct.std::__detail::_Prime_rehash_policy" = type { float, i64 }
%"class.std::unordered_map" = type { %"class.std::_Hashtable.5" }
%"class.std::_Hashtable.5" = type { ptr, i64, %"struct.std::__detail::_Hash_node_base", i64, %"struct.std::__detail::_Prime_rehash_policy", ptr }
%"class.std::unique_ptr" = type { %"struct.std::__uniq_ptr_data" }
%"struct.std::__uniq_ptr_data" = type { %"class.std::__uniq_ptr_impl" }
%"class.std::__uniq_ptr_impl" = type { %"class.std::tuple" }
%"class.std::tuple" = type { %"struct.std::_Tuple_impl" }
%"struct.std::_Tuple_impl" = type { %"struct.std::_Head_base.21" }
%"struct.std::_Head_base.21" = type { ptr }
%"class.net::HpackOutputStream" = type { %"class.std::__cxx11::basic_string", i64 }
%"class.std::__cxx11::basic_string" = type { %"struct.std::__cxx11::basic_string<char>::_Alloc_hider", i64, %union.anon }
%"struct.std::__cxx11::basic_string<char>::_Alloc_hider" = type { ptr }
%union.anon = type { i64, [8 x i8] }
%"class.std::function" = type { %"class.std::_Function_base", ptr }
%"class.std::_Function_base" = type { %"union.std::_Any_data", ptr }
%"union.std::_Any_data" = type { %"union.std::_Nocopy_types" }
%"union.std::_Nocopy_types" = type { { i64, i64 } }

@_ZN3netL28kHeaderTableSizeUpdateOpcodeE = internal constant %"struct.net::HpackPrefix" { i8 1, i64 3 }, align 8

; Function Attrs: mustprogress nounwind uwtable
define linkonce_odr noundef i64 @_ZNK3net16HpackHeaderTable19settings_size_boundEv(ptr noundef nonnull align 8 dereferenceable(256) %0) #2 comdat align 2 {
  %2 = alloca ptr, align 8
  store ptr %0, ptr %2, align 8, !tbaa !94
  %3 = load ptr, ptr %2, align 8
  %4 = getelementptr inbounds nuw %"class.net::HpackHeaderTable", ptr %3, i32 0, i32 6
  %5 = load i64, ptr %4, align 8, !tbaa !96
  ret i64 %5
}

; Function Attrs: mustprogress nounwind uwtable
define linkonce_odr noundef i64 @_ZNSt14numeric_limitsImE3maxEv() #2 comdat align 2 {
  ret i64 -1
}

; Function Attrs: mustprogress nounwind uwtable
define linkonce_odr noundef i64 @_ZNK3net12HpackEncoder29CurrentHeaderTableSizeSettingEv(ptr noundef nonnull align 8 dereferenceable(346) %0) #2 comdat align 2 {
  %2 = alloca ptr, align 8
  store ptr %0, ptr %2, align 8, !tbaa !3
  %3 = load ptr, ptr %2, align 8
  %4 = getelementptr inbounds nuw %"class.net::HpackEncoder", ptr %3, i32 0, i32 0
  %5 = call noundef i64 @_ZNK3net16HpackHeaderTable19settings_size_boundEv(ptr noundef nonnull align 8 dereferenceable(256) %4)
  ret i64 %5
}

; Function Attrs: mustprogress uwtable
define void @_ZN3net12HpackEncoder18MaybeEmitTableSizeEv(ptr noundef nonnull align 8 dereferenceable(346) %0) #0 align 2 {
  %2 = alloca ptr, align 8
  %3 = alloca i64, align 8
  %4 = alloca %"struct.net::HpackPrefix", align 8
  %5 = alloca %"struct.net::HpackPrefix", align 8
  store ptr %0, ptr %2, align 8, !tbaa !3
  %6 = load ptr, ptr %2, align 8
  %7 = getelementptr inbounds nuw %"class.net::HpackEncoder", ptr %6, i32 0, i32 6
  %8 = load i8, ptr %7, align 1, !tbaa !48, !range !73, !noundef !74
  %9 = trunc i8 %8 to i1
  br i1 %9, label %11, label %10

10:                                               ; preds = %1
  br label %39

11:                                               ; preds = %1
  call void @llvm.lifetime.start.p0(i64 8, ptr %3) #14
  %12 = call noundef i64 @_ZNK3net12HpackEncoder29CurrentHeaderTableSizeSettingEv(ptr noundef nonnull align 8 dereferenceable(346) %6)
  store i64 %12, ptr %3, align 8, !tbaa !64
  %13 = getelementptr inbounds nuw %"class.net::HpackEncoder", ptr %6, i32 0, i32 3
  %14 = load i64, ptr %13, align 8, !tbaa !10
  %15 = load i64, ptr %3, align 8, !tbaa !64
  %16 = icmp ult i64 %14, %15
  br i1 %16, label %17, label %27

17:                                               ; preds = %11
  %18 = getelementptr inbounds nuw %"class.net::HpackEncoder", ptr %6, i32 0, i32 1
  call void @llvm.memcpy.p0.p0.i64(ptr align 8 %4, ptr align 8 @_ZN3netL28kHeaderTableSizeUpdateOpcodeE, i64 16, i1 false), !tbaa.struct !93
  %19 = getelementptr inbounds nuw { i8, i64 }, ptr %4, i32 0, i32 0
  %20 = load i8, ptr %19, align 8
  %21 = getelementptr inbounds nuw { i8, i64 }, ptr %4, i32 0, i32 1
  %22 = load i64, ptr %21, align 8
  call void @_ZN3net17HpackOutputStream12AppendPrefixENS_11HpackPrefixE(ptr noundef nonnull align 8 dereferenceable(40) %18, i8 %20, i64 %22)
  %23 = getelementptr inbounds nuw %"class.net::HpackEncoder", ptr %6, i32 0, i32 1
  %24 = getelementptr inbounds nuw %"class.net::HpackEncoder", ptr %6, i32 0, i32 3
  %25 = load i64, ptr %24, align 8, !tbaa !10
  %26 = trunc i64 %25 to i32
  call void @_ZN3net17HpackOutputStream12AppendUint32Ej(ptr noundef nonnull align 8 dereferenceable(40) %23, i32 noundef %26)
  br label %27

27:                                               ; preds = %17, %11
  %28 = getelementptr inbounds nuw %"class.net::HpackEncoder", ptr %6, i32 0, i32 1
  call void @llvm.memcpy.p0.p0.i64(ptr align 8 %5, ptr align 8 @_ZN3netL28kHeaderTableSizeUpdateOpcodeE, i64 16, i1 false), !tbaa.struct !93
  %29 = getelementptr inbounds nuw { i8, i64 }, ptr %5, i32 0, i32 0
  %30 = load i8, ptr %29, align 8
  %31 = getelementptr inbounds nuw { i8, i64 }, ptr %5, i32 0, i32 1
  %32 = load i64, ptr %31, align 8
  call void @_ZN3net17HpackOutputStream12AppendPrefixENS_11HpackPrefixE(ptr noundef nonnull align 8 dereferenceable(40) %28, i8 %30, i64 %32)
  %33 = getelementptr inbounds nuw %"class.net::HpackEncoder", ptr %6, i32 0, i32 1
  %34 = load i64, ptr %3, align 8, !tbaa !64
  %35 = trunc i64 %34 to i32
  call void @_ZN3net17HpackOutputStream12AppendUint32Ej(ptr noundef nonnull align 8 dereferenceable(40) %33, i32 noundef %35)
  %36 = call noundef i64 @_ZNSt14numeric_limitsImE3maxEv() #14
  %37 = getelementptr inbounds nuw %"class.net::HpackEncoder", ptr %6, i32 0, i32 3
  store i64 %36, ptr %37, align 8, !tbaa !10
  %38 = getelementptr inbounds nuw %"class.net::HpackEncoder", ptr %6, i32 0, i32 6
  store i8 0, ptr %38, align 1, !tbaa !48
  call void @llvm.lifetime.end.p0(i64 8, ptr %3) #14
  br label %39

39:                                               ; preds = %27, %10
  ret void
}