; Function Attrs: mustprogress uwtable
define void @_ZN3net12HpackEncoder18MaybeEmitTableSizeEv(ptr noundef nonnull align 8 dereferenceable(346) %0) local_unnamed_addr #0 align 2 {
  %2 = getelementptr inbounds nuw i8, ptr %0, i64 345
  %3 = load i8, ptr %2, align 1, !tbaa !49, !range !56, !noundef !57
  %4 = trunc nuw i8 %3 to i1
  br i1 %4, label %5, label %18

5:                                                ; preds = %1
  %6 = getelementptr inbounds nuw i8, ptr %0, i64 216
  %7 = load i64, ptr %6, align 8, !tbaa !58
  %8 = getelementptr inbounds nuw i8, ptr %0, i64 304
  %9 = load i64, ptr %8, align 8, !tbaa !8
  %10 = icmp ult i64 %9, %7
  br i1 %10, label %11, label %15

11:                                               ; preds = %5
  %12 = getelementptr inbounds nuw i8, ptr %0, i64 256
  tail call void @_ZN3net17HpackOutputStream12AppendPrefixENS_11HpackPrefixE(ptr noundef nonnull align 8 dereferenceable(40) %12, i8 1, i64 3)
  %13 = load i64, ptr %8, align 8, !tbaa !8
  %14 = trunc i64 %13 to i32
  tail call void @_ZN3net17HpackOutputStream12AppendUint32Ej(ptr noundef nonnull align 8 dereferenceable(40) %12, i32 noundef %14)
  br label %15

15:                                               ; preds = %11, %5
  %16 = getelementptr inbounds nuw i8, ptr %0, i64 256
  tail call void @_ZN3net17HpackOutputStream12AppendPrefixENS_11HpackPrefixE(ptr noundef nonnull align 8 dereferenceable(40) %16, i8 1, i64 3)
  %17 = trunc i64 %7 to i32
  tail call void @_ZN3net17HpackOutputStream12AppendUint32Ej(ptr noundef nonnull align 8 dereferenceable(40) %16, i32 noundef %17)
  store i64 -1, ptr %8, align 8, !tbaa !8
  store i8 0, ptr %2, align 1, !tbaa !49
  br label %18

18:                                               ; preds = %1, %15
  ret void
}